	.file	"program.c"
	.comm	fp1,8,8
	.comm	fp2,8,8
	.section	.rodata
.LC0:
	.string	"enter  two numbers"
.LC1:
	.string	"%d %d"
.LC2:
	.string	"sum is %d\n"
.LC3:
	.string	"product is %d\n"
	.text
	.globl	main
	.type	main, @function
main:
.LFB0:
	.cfi_startproc
	pushq	%rbp
	.cfi_def_cfa_offset 16
	.cfi_offset 6, -16
	movq	%rsp, %rbp
	.cfi_def_cfa_register 6
	subq	$16, %rsp
	movq	%fs:40, %rax
	movq	%rax, -8(%rbp)
	xorl	%eax, %eax
	movl	$.LC0, %edi
	call	puts
	leaq	-12(%rbp), %rdx
	leaq	-16(%rbp), %rax
	movq	%rax, %rsi
	movl	$.LC1, %edi
	movl	$0, %eax
	call	__isoc99_scanf
	movq	$add, fp1(%rip)
	movq	$mul, fp2(%rip)
	movq	fp1(%rip), %rax
	movl	-12(%rbp), %ecx
	movl	-16(%rbp), %edx
	movl	%ecx, %esi
	movl	%edx, %edi
	call	*%rax
	movl	%eax, %esi
	movl	$.LC2, %edi
	movl	$0, %eax
	call	printf
	movq	fp2(%rip), %rax
	movl	-12(%rbp), %ecx
	movl	-16(%rbp), %edx
	movl	%ecx, %esi
	movl	%edx, %edi
	call	*%rax
	movl	%eax, %esi
	movl	$.LC3, %edi
	movl	$0, %eax
	call	printf
	movl	$0, %eax
	movq	-8(%rbp), %rcx
	xorq	%fs:40, %rcx
	je	.L3
	call	__stack_chk_fail
.L3:
	leave
	.cfi_def_cfa 7, 8
	ret
	.cfi_endproc
.LFE0:
	.size	main, .-main
	.globl	add
	.type	add, @function
add:
.LFB1:
	.cfi_startproc
	pushq	%rbp
	.cfi_def_cfa_offset 16
	.cfi_offset 6, -16
	movq	%rsp, %rbp
	.cfi_def_cfa_register 6
	movl	%edi, -20(%rbp)
	movl	%esi, -24(%rbp)
	movl	-20(%rbp), %edx
	movl	-24(%rbp), %eax
	addl	%edx, %eax
	movl	%eax, -4(%rbp)
	movl	-4(%rbp), %eax
	popq	%rbp
	.cfi_def_cfa 7, 8
	ret
	.cfi_endproc
.LFE1:
	.size	add, .-add
	.globl	mul
	.type	mul, @function
mul:
.LFB2:
	.cfi_startproc
	pushq	%rbp
	.cfi_def_cfa_offset 16
	.cfi_offset 6, -16
	movq	%rsp, %rbp
	.cfi_def_cfa_register 6
	movl	%edi, -20(%rbp)
	movl	%esi, -24(%rbp)
	movl	-24(%rbp), %eax
	imull	-20(%rbp), %eax
	movl	%eax, -4(%rbp)
	movl	-4(%rbp), %eax
	popq	%rbp
	.cfi_def_cfa 7, 8
	ret
	.cfi_endproc
.LFE2:
	.size	mul, .-mul
	.ident	"GCC: (Ubuntu 5.4.0-6ubuntu1~16.04.10) 5.4.0 20160609"
	.section	.note.GNU-stack,"",@progbits
